; Listing generated by Microsoft (R) Optimizing Compiler Version 19.29.30141.0 

	TITLE	E:\Labs2sem\GVS-2022\GVS-2022\GVS-2022Libs\Debug\GVS-2022Libs.obj
	.686P
	.XMM
	include listing.inc
	.model	flat

INCLUDELIB LIBCMT
INCLUDELIB OLDNAMES

msvcjmc	SEGMENT
__741AE07E_corecrt_math@h DB 01H
__B49664B7_stdlib@h DB 01H
__244AF085_cstdlib DB 01H
__A2143F22_corecrt_stdio_config@h DB 01H
__829E1958_corecrt_wstdio@h DB 01H
__6DFAE8B8_stdio@h DB 01H
__1FEB9909_corecrt_memcpy_s@h DB 01H
__C6E16F6F_corecrt_wconio@h DB 01H
__6D390390_corecrt_wio@h DB 01H
__9200769A_corecrt_wstring@h DB 01H
__1157D6BA_corecrt_wtime@h DB 01H
__1DC1E279_stat@h DB 01H
__93DC0B45_wchar@h DB 01H
__7FE5F402_limits DB 01H
__97D3638F_vcruntime_new@h DB 01H
__589FA321_type_traits DB 01H
__20BB4341_malloc@h DB 01H
__B0A13A33_vcruntime_exception@h DB 01H
__FF458F76_exception DB 01H
__A751F051_corecrt_memory@h DB 01H
__32E5F013_string@h DB 01H
__12269DE6_xutility DB 01H
__79D216CD_xmemory DB 01H
__1589CDA2_algorithm DB 01H
__B2D2BA86_ctype@h DB 01H
__79C7FC57_basetsd@h DB 01H
__D545DD43_guiddef@h DB 01H
__D5DDFBF3_winnt@h DB 01H
__439612F0_processthreadsapi@h DB 01H
__5733279A_memoryapi@h DB 01H
__D4435474_winerror@h DB 01H
__B3ED30D4_winbase@h DB 01H
__DB057BA3_winuser@h DB 01H
__A7113148_winioctl@h DB 01H
__EC5BC72C_propidl@h DB 01H
__6DA674A0_oleauto@h DB 01H
__A118E6DC_stralign@h DB 01H
__C8CF747D_GVS-2022Libs@cpp DB 01H
msvcjmc	ENDS
PUBLIC	_raiser
PUBLIC	_module
PUBLIC	__JustMyCode_Default
EXTRN	_abs:PROC
EXTRN	_pow:PROC
EXTRN	@__CheckForDebuggerJustMyCode@4:PROC
EXTRN	__RTC_CheckEsp:PROC
EXTRN	__RTC_InitBase:PROC
EXTRN	__RTC_Shutdown:PROC
EXTRN	__fltused:DWORD
;	COMDAT rtc$TMZ
rtc$TMZ	SEGMENT
__RTC_Shutdown.rtc$TMZ DD FLAT:__RTC_Shutdown
rtc$TMZ	ENDS
;	COMDAT rtc$IMZ
rtc$IMZ	SEGMENT
__RTC_InitBase.rtc$IMZ DD FLAT:__RTC_InitBase
rtc$IMZ	ENDS
; Function compile flags: /Odt
;	COMDAT __JustMyCode_Default
_TEXT	SEGMENT
__JustMyCode_Default PROC				; COMDAT
  00000	55		 push	 ebp
  00001	8b ec		 mov	 ebp, esp
  00003	5d		 pop	 ebp
  00004	c3		 ret	 0
__JustMyCode_Default ENDP
_TEXT	ENDS
; Function compile flags: /Odtp /RTCsu /ZI
; File E:\Labs2sem\GVS-2022\GVS-2022\GVS-2022Libs\GVS-2022Libs.cpp
;	COMDAT _module
_TEXT	SEGMENT
_a$ = 8							; size = 4
_module	PROC						; COMDAT

; 8    : 	int module(int a) {

  00000	55		 push	 ebp
  00001	8b ec		 mov	 ebp, esp
  00003	81 ec c0 00 00
	00		 sub	 esp, 192		; 000000c0H
  00009	53		 push	 ebx
  0000a	56		 push	 esi
  0000b	57		 push	 edi
  0000c	8b fd		 mov	 edi, ebp
  0000e	33 c9		 xor	 ecx, ecx
  00010	b8 cc cc cc cc	 mov	 eax, -858993460		; ccccccccH
  00015	f3 ab		 rep stosd
  00017	b9 00 00 00 00	 mov	 ecx, OFFSET __C8CF747D_GVS-2022Libs@cpp
  0001c	e8 00 00 00 00	 call	 @__CheckForDebuggerJustMyCode@4

; 9    : 		return abs(a);

  00021	8b 45 08	 mov	 eax, DWORD PTR _a$[ebp]
  00024	50		 push	 eax
  00025	e8 00 00 00 00	 call	 _abs
  0002a	83 c4 04	 add	 esp, 4

; 10   : 	}

  0002d	5f		 pop	 edi
  0002e	5e		 pop	 esi
  0002f	5b		 pop	 ebx
  00030	81 c4 c0 00 00
	00		 add	 esp, 192		; 000000c0H
  00036	3b ec		 cmp	 ebp, esp
  00038	e8 00 00 00 00	 call	 __RTC_CheckEsp
  0003d	8b e5		 mov	 esp, ebp
  0003f	5d		 pop	 ebp
  00040	c3		 ret	 0
_module	ENDP
_TEXT	ENDS
; Function compile flags: /Odtp /RTCsu /ZI
; File E:\Labs2sem\GVS-2022\GVS-2022\GVS-2022Libs\GVS-2022Libs.cpp
;	COMDAT _raiser
_TEXT	SEGMENT
tv76 = -200						; size = 8
_a$ = 8							; size = 4
_b$ = 12						; size = 4
_raiser	PROC						; COMDAT

; 5    : 	int raiser(int a, int b) {

  00000	55		 push	 ebp
  00001	8b ec		 mov	 ebp, esp
  00003	81 ec c8 00 00
	00		 sub	 esp, 200		; 000000c8H
  00009	53		 push	 ebx
  0000a	56		 push	 esi
  0000b	57		 push	 edi
  0000c	8d 7d f8	 lea	 edi, DWORD PTR [ebp-8]
  0000f	b9 02 00 00 00	 mov	 ecx, 2
  00014	b8 cc cc cc cc	 mov	 eax, -858993460		; ccccccccH
  00019	f3 ab		 rep stosd
  0001b	b9 00 00 00 00	 mov	 ecx, OFFSET __C8CF747D_GVS-2022Libs@cpp
  00020	e8 00 00 00 00	 call	 @__CheckForDebuggerJustMyCode@4

; 6    : 		return pow(a, b);

  00025	f2 0f 2a 45 0c	 cvtsi2sd xmm0, DWORD PTR _b$[ebp]
  0002a	83 ec 08	 sub	 esp, 8
  0002d	f2 0f 11 04 24	 movsd	 QWORD PTR [esp], xmm0
  00032	f2 0f 2a 45 08	 cvtsi2sd xmm0, DWORD PTR _a$[ebp]
  00037	83 ec 08	 sub	 esp, 8
  0003a	f2 0f 11 04 24	 movsd	 QWORD PTR [esp], xmm0
  0003f	e8 00 00 00 00	 call	 _pow
  00044	83 c4 10	 add	 esp, 16			; 00000010H
  00047	dd 9d 38 ff ff
	ff		 fstp	 QWORD PTR tv76[ebp]
  0004d	f2 0f 10 85 38
	ff ff ff	 movsd	 xmm0, QWORD PTR tv76[ebp]
  00055	f2 0f 2c c0	 cvttsd2si eax, xmm0

; 7    : 	}

  00059	5f		 pop	 edi
  0005a	5e		 pop	 esi
  0005b	5b		 pop	 ebx
  0005c	81 c4 c8 00 00
	00		 add	 esp, 200		; 000000c8H
  00062	3b ec		 cmp	 ebp, esp
  00064	e8 00 00 00 00	 call	 __RTC_CheckEsp
  00069	8b e5		 mov	 esp, ebp
  0006b	5d		 pop	 ebp
  0006c	c3		 ret	 0
_raiser	ENDP
_TEXT	ENDS
END
